target datalayout = "e-m:e-p270:32:32-p271:32:32-p272:64:64-i64:64-i128:128-f80:128-n8:16:32:64-S128"
target triple = "x86_64-pc-linux-gnu"

%struct.Kit_Graph_t_ = type { i32, i32, i32, i32, ptr, %struct.Kit_Edge_t_ }
%struct.Kit_Edge_t_ = type { i32 }
%struct.Kit_Node_t_ = type { %struct.Kit_Edge_t_, %struct.Kit_Edge_t_, %union.anon, i32 }
%union.anon = type { ptr }

; Function Attrs: inlinehint nounwind uwtable
define internal i32 @Kit_EdgeCreate(i32 noundef %0, i32 noundef %1) #7 {
  %3 = alloca %struct.Kit_Edge_t_, align 4
  %4 = alloca i32, align 4
  %5 = alloca i32, align 4
  store i32 %0, ptr %4, align 4, !tbaa !3
  store i32 %1, ptr %5, align 4, !tbaa !3
  store i32 0, ptr %3, align 4
  %6 = load i32, ptr %5, align 4, !tbaa !3
  %7 = load i32, ptr %3, align 4
  %8 = and i32 %6, 1
  %9 = and i32 %7, -2
  %10 = or i32 %9, %8
  store i32 %10, ptr %3, align 4
  %11 = load i32, ptr %4, align 4, !tbaa !3
  %12 = load i32, ptr %3, align 4
  %13 = and i32 %11, 1073741823
  %14 = shl i32 %13, 1
  %15 = and i32 %12, -2147483647
  %16 = or i32 %15, %14
  store i32 %16, ptr %3, align 4
  %17 = getelementptr inbounds nuw %struct.Kit_Edge_t_, ptr %3, i32 0, i32 0
  %18 = load i32, ptr %17, align 4
  ret i32 %18
}

; Function Attrs: nounwind uwtable
define ptr @Kit_GraphAppendNode(ptr noundef %0) #0 {
  %2 = alloca ptr, align 8
  %3 = alloca ptr, align 8
  store ptr %0, ptr %2, align 8, !tbaa !7
  call void @llvm.lifetime.start.p0(i64 8, ptr %3) #13
  %4 = load ptr, ptr %2, align 8, !tbaa !7
  %5 = getelementptr inbounds nuw %struct.Kit_Graph_t_, ptr %4, i32 0, i32 2
  %6 = load i32, ptr %5, align 8, !tbaa !14
  %7 = load ptr, ptr %2, align 8, !tbaa !7
  %8 = getelementptr inbounds nuw %struct.Kit_Graph_t_, ptr %7, i32 0, i32 3
  %9 = load i32, ptr %8, align 4, !tbaa !15
  %10 = icmp eq i32 %6, %9
  br i1 %10, label %11, label %45

11:                                               ; preds = %1
  %12 = load ptr, ptr %2, align 8, !tbaa !7
  %13 = getelementptr inbounds nuw %struct.Kit_Graph_t_, ptr %12, i32 0, i32 4
  %14 = load ptr, ptr %13, align 8, !tbaa !16
  %15 = icmp ne ptr %14, null
  br i1 %15, label %16, label %27

16:                                               ; preds = %11
  %17 = load ptr, ptr %2, align 8, !tbaa !7
  %18 = getelementptr inbounds nuw %struct.Kit_Graph_t_, ptr %17, i32 0, i32 4
  %19 = load ptr, ptr %18, align 8, !tbaa !16
  %20 = load ptr, ptr %2, align 8, !tbaa !7
  %21 = getelementptr inbounds nuw %struct.Kit_Graph_t_, ptr %20, i32 0, i32 3
  %22 = load i32, ptr %21, align 4, !tbaa !15
  %23 = mul nsw i32 2, %22
  %24 = sext i32 %23 to i64
  %25 = mul i64 24, %24
  %26 = call ptr @realloc(ptr noundef %19, i64 noundef %25) #15
  br label %35

27:                                               ; preds = %11
  %28 = load ptr, ptr %2, align 8, !tbaa !7
  %29 = getelementptr inbounds nuw %struct.Kit_Graph_t_, ptr %28, i32 0, i32 3
  %30 = load i32, ptr %29, align 4, !tbaa !15
  %31 = mul nsw i32 2, %30
  %32 = sext i32 %31 to i64
  %33 = mul i64 24, %32
  %34 = call noalias ptr @malloc(i64 noundef %33) #14
  br label %35

35:                                               ; preds = %27, %16
  %36 = phi ptr [ %26, %16 ], [ %34, %27 ]
  %37 = load ptr, ptr %2, align 8, !tbaa !7
  %38 = getelementptr inbounds nuw %struct.Kit_Graph_t_, ptr %37, i32 0, i32 4
  store ptr %36, ptr %38, align 8, !tbaa !16
  %39 = load ptr, ptr %2, align 8, !tbaa !7
  %40 = getelementptr inbounds nuw %struct.Kit_Graph_t_, ptr %39, i32 0, i32 3
  %41 = load i32, ptr %40, align 4, !tbaa !15
  %42 = mul nsw i32 2, %41
  %43 = load ptr, ptr %2, align 8, !tbaa !7
  %44 = getelementptr inbounds nuw %struct.Kit_Graph_t_, ptr %43, i32 0, i32 3
  store i32 %42, ptr %44, align 4, !tbaa !15
  br label %45

45:                                               ; preds = %35, %1
  %46 = load ptr, ptr %2, align 8, !tbaa !7
  %47 = getelementptr inbounds nuw %struct.Kit_Graph_t_, ptr %46, i32 0, i32 4
  %48 = load ptr, ptr %47, align 8, !tbaa !16
  %49 = load ptr, ptr %2, align 8, !tbaa !7
  %50 = getelementptr inbounds nuw %struct.Kit_Graph_t_, ptr %49, i32 0, i32 2
  %51 = load i32, ptr %50, align 8, !tbaa !14
  %52 = add nsw i32 %51, 1
  store i32 %52, ptr %50, align 8, !tbaa !14
  %53 = sext i32 %51 to i64
  %54 = getelementptr inbounds %struct.Kit_Node_t_, ptr %48, i64 %53
  store ptr %54, ptr %3, align 8, !tbaa !18
  %55 = load ptr, ptr %3, align 8, !tbaa !18
  call void @llvm.memset.p0.i64(ptr align 8 %55, i8 0, i64 24, i1 false)
  %56 = load ptr, ptr %3, align 8, !tbaa !18
  call void @llvm.lifetime.end.p0(i64 8, ptr %3) #13
  ret ptr %56
}

; Function Attrs: nounwind uwtable
define i32 @Kit_GraphAddNodeOr(ptr noundef %0, i32 %1, i32 %2) #0 {
  %4 = alloca %struct.Kit_Edge_t_, align 4
  %5 = alloca %struct.Kit_Edge_t_, align 4
  %6 = alloca %struct.Kit_Edge_t_, align 4
  %7 = alloca ptr, align 8
  %8 = alloca ptr, align 8
  %9 = getelementptr inbounds nuw %struct.Kit_Edge_t_, ptr %5, i32 0, i32 0
  store i32 %1, ptr %9, align 4
  %10 = getelementptr inbounds nuw %struct.Kit_Edge_t_, ptr %6, i32 0, i32 0
  store i32 %2, ptr %10, align 4
  store ptr %0, ptr %7, align 8, !tbaa !7
  call void @llvm.lifetime.start.p0(i64 8, ptr %8) #13
  %11 = load ptr, ptr %7, align 8, !tbaa !7
  %12 = call ptr @Kit_GraphAppendNode(ptr noundef %11)
  store ptr %12, ptr %8, align 8, !tbaa !18
  %13 = load ptr, ptr %8, align 8, !tbaa !18
  %14 = getelementptr inbounds nuw %struct.Kit_Node_t_, ptr %13, i32 0, i32 0
  call void @llvm.memcpy.p0.p0.i64(ptr align 8 %14, ptr align 4 %5, i64 4, i1 false), !tbaa.struct !19
  %15 = load ptr, ptr %8, align 8, !tbaa !18
  %16 = getelementptr inbounds nuw %struct.Kit_Node_t_, ptr %15, i32 0, i32 1
  call void @llvm.memcpy.p0.p0.i64(ptr align 4 %16, ptr align 4 %6, i64 4, i1 false), !tbaa.struct !19
  %17 = load i32, ptr %5, align 4
  %18 = and i32 %17, 1
  %19 = load ptr, ptr %8, align 8, !tbaa !18
  %20 = getelementptr inbounds nuw %struct.Kit_Node_t_, ptr %19, i32 0, i32 3
  %21 = load i32, ptr %20, align 8
  %22 = and i32 %18, 1
  %23 = shl i32 %22, 15
  %24 = and i32 %21, -32769
  %25 = or i32 %24, %23
  store i32 %25, ptr %20, align 8
  %26 = load i32, ptr %6, align 4
  %27 = and i32 %26, 1
  %28 = load ptr, ptr %8, align 8, !tbaa !18
  %29 = getelementptr inbounds nuw %struct.Kit_Node_t_, ptr %28, i32 0, i32 3
  %30 = load i32, ptr %29, align 8
  %31 = and i32 %27, 1
  %32 = shl i32 %31, 16
  %33 = and i32 %30, -65537
  %34 = or i32 %33, %32
  store i32 %34, ptr %29, align 8
  %35 = load ptr, ptr %8, align 8, !tbaa !18
  %36 = getelementptr inbounds nuw %struct.Kit_Node_t_, ptr %35, i32 0, i32 3
  %37 = load i32, ptr %36, align 8
  %38 = and i32 %37, -16385
  %39 = or i32 %38, 16384
  store i32 %39, ptr %36, align 8
  %40 = load ptr, ptr %8, align 8, !tbaa !18
  %41 = getelementptr inbounds nuw %struct.Kit_Node_t_, ptr %40, i32 0, i32 0
  %42 = load i32, ptr %41, align 8
  %43 = and i32 %42, 1
  %44 = icmp ne i32 %43, 0
  %45 = xor i1 %44, true
  %46 = zext i1 %45 to i32
  %47 = load ptr, ptr %8, align 8, !tbaa !18
  %48 = getelementptr inbounds nuw %struct.Kit_Node_t_, ptr %47, i32 0, i32 0
  %49 = load i32, ptr %48, align 8
  %50 = and i32 %46, 1
  %51 = and i32 %49, -2
  %52 = or i32 %51, %50
  store i32 %52, ptr %48, align 8
  %53 = load ptr, ptr %8, align 8, !tbaa !18
  %54 = getelementptr inbounds nuw %struct.Kit_Node_t_, ptr %53, i32 0, i32 1
  %55 = load i32, ptr %54, align 4
  %56 = and i32 %55, 1
  %57 = icmp ne i32 %56, 0
  %58 = xor i1 %57, true
  %59 = zext i1 %58 to i32
  %60 = load ptr, ptr %8, align 8, !tbaa !18
  %61 = getelementptr inbounds nuw %struct.Kit_Node_t_, ptr %60, i32 0, i32 1
  %62 = load i32, ptr %61, align 4
  %63 = and i32 %59, 1
  %64 = and i32 %62, -2
  %65 = or i32 %64, %63
  store i32 %65, ptr %61, align 4
  %66 = load ptr, ptr %7, align 8, !tbaa !7
  %67 = getelementptr inbounds nuw %struct.Kit_Graph_t_, ptr %66, i32 0, i32 2
  %68 = load i32, ptr %67, align 8, !tbaa !14
  %69 = sub nsw i32 %68, 1
  %70 = call i32 @Kit_EdgeCreate(i32 noundef %69, i32 noundef 1)
  %71 = getelementptr inbounds nuw %struct.Kit_Edge_t_, ptr %4, i32 0, i32 0
  store i32 %70, ptr %71, align 4
  call void @llvm.lifetime.end.p0(i64 8, ptr %8) #13
  %72 = getelementptr inbounds nuw %struct.Kit_Edge_t_, ptr %4, i32 0, i32 0
  %73 = load i32, ptr %72, align 4
  ret i32 %73
}