; Function Attrs: mustprogress nounwind willreturn uwtable
define range(i32 1, -2147483648) i32 @Kit_GraphAddNodeOr(ptr noundef captures(none) %0, i32 %1, i32 %2) local_unnamed_addr #4 {
  %4 = getelementptr inbounds nuw i8, ptr %0, i64 8
  %5 = load i32, ptr %4, align 8, !tbaa !11
  %6 = getelementptr inbounds nuw i8, ptr %0, i64 12
  %7 = load i32, ptr %6, align 4, !tbaa !12
  %8 = icmp eq i32 %5, %7
  %9 = getelementptr inbounds nuw i8, ptr %0, i64 16
  %10 = load ptr, ptr %9, align 8, !tbaa !13
  br i1 %8, label %11, label %Kit_GraphAppendNode.exit

11:                                               ; preds = %3
  %.not.i = icmp eq ptr %10, null
  %12 = shl nsw i32 %5, 1
  %13 = sext i32 %12 to i64
  %14 = mul nsw i64 %13, 24
  br i1 %.not.i, label %17, label %15

15:                                               ; preds = %11
  %16 = tail call ptr @realloc(ptr noundef nonnull %10, i64 noundef %14) #22
  %.pre.i = load i32, ptr %6, align 4, !tbaa !12
  %.pre15.pre.i = load i32, ptr %4, align 8, !tbaa !11
  %.pre17.i = shl nsw i32 %.pre.i, 1
  br label %19

17:                                               ; preds = %11
  %18 = tail call noalias ptr @malloc(i64 noundef %14) #20
  br label %19

19:                                               ; preds = %17, %15
  %.pre-phi.i = phi i32 [ %12, %17 ], [ %.pre17.i, %15 ]
  %.pre15.i = phi i32 [ %5, %17 ], [ %.pre15.pre.i, %15 ]
  %20 = phi ptr [ %18, %17 ], [ %16, %15 ]
  store ptr %20, ptr %9, align 8, !tbaa !13
  store i32 %.pre-phi.i, ptr %6, align 4, !tbaa !12
  br label %Kit_GraphAppendNode.exit

Kit_GraphAppendNode.exit:                         ; preds = %3, %19
  %21 = phi i32 [ %.pre15.i, %19 ], [ %5, %3 ]
  %22 = phi ptr [ %20, %19 ], [ %10, %3 ]
  %23 = add nsw i32 %21, 1
  store i32 %23, ptr %4, align 8, !tbaa !11
  %24 = sext i32 %21 to i64
  %25 = getelementptr inbounds %struct.Kit_Node_t_, ptr %22, i64 %24
  %26 = getelementptr inbounds nuw i8, ptr %25, i64 8
  tail call void @llvm.memset.p0.i64(ptr noundef nonnull align 8 dereferenceable(24) %26, i8 0, i64 16, i1 false)
  %27 = getelementptr inbounds nuw i8, ptr %25, i64 4
  %28 = getelementptr inbounds nuw i8, ptr %25, i64 16
  %29 = shl i32 %1, 15
  %30 = and i32 %29, 32768
  %31 = shl i32 %2, 16
  %32 = and i32 %31, 65536
  %33 = or disjoint i32 %30, %32
  %34 = or disjoint i32 %33, 16384
  store i32 %34, ptr %28, align 8
  %35 = xor i32 %1, 1
  store i32 %35, ptr %25, align 8
  %36 = xor i32 %2, 1
  store i32 %36, ptr %27, align 4
  %37 = load i32, ptr %4, align 8, !tbaa !11
  %38 = shl i32 %37, 1
  %39 = add i32 %38, 2147483646
  %40 = and i32 %39, 2147483646
  %41 = or disjoint i32 %40, 1
  ret i32 %41
}